; Function Attrs: mustprogress uwtable
define noundef zeroext i1 @_ZNK4cvc58internal9LogicInfo10hasNothingEv(ptr nocapture noundef nonnull readonly align 8 dereferenceable(88) %this) local_unnamed_addr #3 align 2 personality ptr @__gxx_personality_v0 {
entry:
  %ref.tmp = alloca %"class.std::__cxx11::basic_string", align 8
  %nothing = alloca %"class.cvc5::internal::LogicInfo", align 8
  %d_locked = getelementptr inbounds i8, ptr %this, i64 87
  %0 = load i8, ptr %d_locked, align 1
  %1 = and i8 %0, 1
  %tobool.not = icmp eq i8 %1, 0
  br i1 %tobool.not, label %if.then, label %do.end

if.then:                                          ; preds = %entry
  %exception = tail call ptr @__cxa_allocate_exception(i64 40) #14
  invoke void (ptr, ptr, ...) @_ZN4cvc58internal24IllegalArgumentException14formatVariadicB5cxx11EPKcz(ptr nonnull sret(%"class.std::__cxx11::basic_string") align 8 %ref.tmp, ptr noundef nonnull @.str.3)
          to label %invoke.cont unwind label %ehcleanup.thread

invoke.cont:                                      ; preds = %if.then
  %call = call noundef ptr @_ZNKSt7__cxx1112basic_stringIcSt11char_traitsIcESaIcEE5c_strEv(ptr noundef nonnull align 8 dereferenceable(32) %ref.tmp) #14
  invoke void @_ZN4cvc58internal24IllegalArgumentExceptionC2EPKcS3_S3_S3_(ptr noundef nonnull align 8 dereferenceable(40) %exception, ptr noundef nonnull @.str.1, ptr noundef nonnull @.str.2, ptr noundef nonnull @__PRETTY_FUNCTION__._ZNK4cvc58internal9LogicInfo10hasNothingEv, ptr noundef %call)
          to label %invoke.cont3 unwind label %ehcleanup.thread6

ehcleanup.thread6:                                ; preds = %invoke.cont
  %2 = landingpad { ptr, i32 }
          cleanup
  call void @_ZNSt7__cxx1112basic_stringIcSt11char_traitsIcESaIcEED1Ev(ptr noundef nonnull align 8 dereferenceable(32) %ref.tmp) #14
  br label %cleanup.action

invoke.cont3:                                     ; preds = %invoke.cont
  invoke void @__cxa_throw(ptr nonnull %exception, ptr nonnull @_ZTIN4cvc58internal24IllegalArgumentExceptionE, ptr nonnull @_ZN4cvc58internal24IllegalArgumentExceptionD2Ev) #16
          to label %unreachable unwind label %ehcleanup

ehcleanup.thread:                                 ; preds = %if.then
  %3 = landingpad { ptr, i32 }
          cleanup
  br label %cleanup.action

ehcleanup:                                        ; preds = %invoke.cont3
  %4 = landingpad { ptr, i32 }
          cleanup
  call void @_ZNSt7__cxx1112basic_stringIcSt11char_traitsIcESaIcEED1Ev(ptr noundef nonnull align 8 dereferenceable(32) %ref.tmp) #14
  br label %eh.resume

cleanup.action:                                   ; preds = %ehcleanup.thread6, %ehcleanup.thread
  %.pn5 = phi { ptr, i32 } [ %3, %ehcleanup.thread ], [ %2, %ehcleanup.thread6 ]
  call void @__cxa_free_exception(ptr %exception) #14
  br label %eh.resume

do.end:                                           ; preds = %entry
  call void @_ZN4cvc58internal9LogicInfoC1EPKc(ptr noundef nonnull align 8 dereferenceable(88) %nothing, ptr noundef nonnull @.str)
  %d_locked.i = getelementptr inbounds i8, ptr %nothing, i64 87
  store i8 1, ptr %d_locked.i, align 1
  %call7 = invoke noundef zeroext i1 @_ZNK4cvc58internal9LogicInfoeqERKS1_(ptr noundef nonnull align 8 dereferenceable(88) %this, ptr noundef nonnull align 8 dereferenceable(88) %nothing)
          to label %invoke.cont6 unwind label %lpad4

invoke.cont6:                                     ; preds = %do.end
  %d_theories.i = getelementptr inbounds i8, ptr %nothing, i64 32
  %5 = load ptr, ptr %d_theories.i, align 8
  %tobool.not.i.i.i.i = icmp eq ptr %5, null
  br i1 %tobool.not.i.i.i.i, label %_ZN4cvc58internal9LogicInfoD2Ev.exit, label %if.then.i.i.i.i

if.then.i.i.i.i:                                  ; preds = %invoke.cont6
  %_M_end_of_storage.i.i.i.i.i = getelementptr inbounds i8, ptr %nothing, i64 64
  %6 = load ptr, ptr %_M_end_of_storage.i.i.i.i.i, align 8
  %sub.ptr.lhs.cast.i.i.i.i = ptrtoint ptr %6 to i64
  %sub.ptr.rhs.cast.i.i.i.i = ptrtoint ptr %5 to i64
  %sub.ptr.sub.i.i.i.i = sub i64 %sub.ptr.lhs.cast.i.i.i.i, %sub.ptr.rhs.cast.i.i.i.i
  %sub.ptr.div.i.i.i.i = ashr exact i64 %sub.ptr.sub.i.i.i.i, 3
  %idx.neg.i.i.i.i = sub nsw i64 0, %sub.ptr.div.i.i.i.i
  %add.ptr.i.i.i.i = getelementptr inbounds i64, ptr %6, i64 %idx.neg.i.i.i.i
  call void @_ZdlPv(ptr noundef %add.ptr.i.i.i.i) #17
  store ptr null, ptr %d_theories.i, align 8
  %ref.tmp.sroa.2.0.this.sroa_idx.i.i.i.i.i = getelementptr inbounds i8, ptr %nothing, i64 40
  store i32 0, ptr %ref.tmp.sroa.2.0.this.sroa_idx.i.i.i.i.i, align 8
  %ref.tmp.sroa.31.0.this.sroa_idx.i.i.i.i.i = getelementptr inbounds i8, ptr %nothing, i64 48
  store ptr null, ptr %ref.tmp.sroa.31.0.this.sroa_idx.i.i.i.i.i, align 8
  %ref.tmp.sroa.4.0.this.sroa_idx.i.i.i.i.i = getelementptr inbounds i8, ptr %nothing, i64 56
  store i32 0, ptr %ref.tmp.sroa.4.0.this.sroa_idx.i.i.i.i.i, align 8
  store ptr null, ptr %_M_end_of_storage.i.i.i.i.i, align 8
  br label %_ZN4cvc58internal9LogicInfoD2Ev.exit

_ZN4cvc58internal9LogicInfoD2Ev.exit:             ; preds = %invoke.cont6, %if.then.i.i.i.i
  call void @_ZNSt7__cxx1112basic_stringIcSt11char_traitsIcESaIcEED1Ev(ptr noundef nonnull align 8 dereferenceable(32) %nothing) #14
  ret i1 %call7

lpad4:                                            ; preds = %do.end
  %7 = landingpad { ptr, i32 }
          cleanup
  call void @_ZN4cvc58internal9LogicInfoD2Ev(ptr noundef nonnull align 8 dereferenceable(88) %nothing) #14
  br label %eh.resume

eh.resume:                                        ; preds = %ehcleanup, %cleanup.action, %lpad4
  %.pn.pn = phi { ptr, i32 } [ %.pn5, %cleanup.action ], [ %4, %ehcleanup ], [ %7, %lpad4 ]
  resume { ptr, i32 } %.pn.pn

unreachable:                                      ; preds = %invoke.cont3
  unreachable
}